; Function Attrs: mustprogress uwtable
define noundef i64 @_ZNK8QuantLib21MultiProductComposite16numberOfProductsEv(ptr nocapture noundef nonnull readonly align 8 dereferenceable(296) %this) unnamed_addr #0 align 2 {
entry:
  %components_ = getelementptr inbounds nuw i8, ptr %this, i64 8
  %0 = load ptr, ptr %components_, align 8, !tbaa !3
  %_M_finish.i = getelementptr inbounds nuw i8, ptr %this, i64 16
  %1 = load ptr, ptr %_M_finish.i, align 8, !tbaa !3
  %cmp.i.not5 = icmp eq ptr %0, %1
  br i1 %cmp.i.not5, label %for.cond.cleanup, label %for.body

for.cond.cleanup:                                 ; preds = %for.body, %entry
  %result.0.lcssa = phi i64 [ 0, %entry ], [ %add, %for.body ]
  ret i64 %result.0.lcssa

for.body:                                         ; preds = %entry, %for.body
  %result.07 = phi i64 [ %add, %for.body ], [ 0, %entry ]
  %__begin1.sroa.0.06 = phi ptr [ %incdec.ptr.i, %for.body ], [ %0, %entry ]
  %2 = load ptr, ptr %__begin1.sroa.0.06, align 8, !tbaa !3
  %vtable = load ptr, ptr %2, align 8, !tbaa !7
  %vfn = getelementptr inbounds i8, ptr %vtable, i64 40
  %3 = load ptr, ptr %vfn, align 8
  %call7 = tail call noundef i64 %3(ptr noundef nonnull align 8 dereferenceable(8) %2)
  %add = add i64 %call7, %result.07
  %incdec.ptr.i = getelementptr inbounds nuw i8, ptr %__begin1.sroa.0.06, i64 96
  %cmp.i.not = icmp eq ptr %incdec.ptr.i, %1
  br i1 %cmp.i.not, label %for.cond.cleanup, label %for.body
}